; ModuleID = '38/121.c'
source_filename = "38/121.c"
target datalayout = "e-m:e-p270:32:32-p271:32:32-p272:64:64-i64:64-f80:128-n8:16:32:64-S128"
target triple = "x86_64-pc-linux-gnu"

@.str = private unnamed_addr constant [3 x i8] c"%d\00", align 1
@.str.1 = private unnamed_addr constant [4 x i8] c"%lf\00", align 1
@.str.2 = private unnamed_addr constant [7 x i8] c"%.5lf\0A\00", align 1

; Function Attrs: noinline nounwind uwtable
define dso_local void @main() #0 {
  %1 = alloca i32, align 4
  %2 = alloca i32, align 4
  %3 = alloca [100 x double], align 16
  %4 = alloca i32, align 4
  %5 = alloca double, align 8
  %6 = alloca double, align 8
  %7 = call i32 (i8*, ...) @__isoc99_scanf(i8* getelementptr inbounds ([3 x i8], [3 x i8]* @.str, i64 0, i64 0), i32* %1)
  br label %8

8:                                                ; preds = %59, %0
  %9 = load i32, i32* %1, align 4
  %10 = icmp sgt i32 %9, 0
  br i1 %10, label %11, label %62

11:                                               ; preds = %8
  %12 = call i32 (i8*, ...) @__isoc99_scanf(i8* getelementptr inbounds ([3 x i8], [3 x i8]* @.str, i64 0, i64 0), i32* %2)
  store double 0.000000e+00, double* %5, align 8
  store double 0.000000e+00, double* %6, align 8
  store i32 0, i32* %4, align 4
  br label %13

13:                                               ; preds = %40, %11
  %14 = load i32, i32* %4, align 4
  %15 = load i32, i32* %2, align 4
  %16 = sub nsw i32 %15, 1
  %17 = icmp sle i32 %14, %16
  br i1 %17, label %18, label %43

18:                                               ; preds = %13
  %19 = load i32, i32* %4, align 4
  %20 = sext i32 %19 to i64
  %21 = getelementptr inbounds [100 x double], [100 x double]* %3, i64 0, i64 %20
  %22 = call i32 (i8*, ...) @__isoc99_scanf(i8* getelementptr inbounds ([4 x i8], [4 x i8]* @.str.1, i64 0, i64 0), double* %21)
  %23 = load i32, i32* %4, align 4
  %24 = sext i32 %23 to i64
  %25 = getelementptr inbounds [100 x double], [100 x double]* %3, i64 0, i64 %24
  %26 = load double, double* %25, align 8
  %27 = load i32, i32* %4, align 4
  %28 = sext i32 %27 to i64
  %29 = getelementptr inbounds [100 x double], [100 x double]* %3, i64 0, i64 %28
  %30 = load double, double* %29, align 8
  %31 = fmul double %26, %30
  %32 = load double, double* %5, align 8
  %33 = fadd double %32, %31
  store double %33, double* %5, align 8
  %34 = load i32, i32* %4, align 4
  %35 = sext i32 %34 to i64
  %36 = getelementptr inbounds [100 x double], [100 x double]* %3, i64 0, i64 %35
  %37 = load double, double* %36, align 8
  %38 = load double, double* %6, align 8
  %39 = fadd double %38, %37
  store double %39, double* %6, align 8
  br label %40

40:                                               ; preds = %18
  %41 = load i32, i32* %4, align 4
  %42 = add nsw i32 %41, 1
  store i32 %42, i32* %4, align 4
  br label %13

43:                                               ; preds = %13
  %44 = load i32, i32* %2, align 4
  %45 = sitofp i32 %44 to double
  %46 = load double, double* %5, align 8
  %47 = fdiv double %46, %45
  store double %47, double* %5, align 8
  %48 = load i32, i32* %2, align 4
  %49 = sitofp i32 %48 to double
  %50 = load double, double* %6, align 8
  %51 = fdiv double %50, %49
  store double %51, double* %6, align 8
  %52 = load double, double* %5, align 8
  %53 = load double, double* %6, align 8
  %54 = load double, double* %6, align 8
  %55 = fmul double %53, %54
  %56 = fsub double %52, %55
  %57 = call double @sqrt(double %56) #3
  %58 = call i32 (i8*, ...) @printf(i8* getelementptr inbounds ([7 x i8], [7 x i8]* @.str.2, i64 0, i64 0), double %57)
  br label %59

59:                                               ; preds = %43
  %60 = load i32, i32* %1, align 4
  %61 = add nsw i32 %60, -1
  store i32 %61, i32* %1, align 4
  br label %8

62:                                               ; preds = %8
  ret void
}

declare dso_local i32 @__isoc99_scanf(i8*, ...) #1

declare dso_local i32 @printf(i8*, ...) #1

; Function Attrs: nounwind
declare dso_local double @sqrt(double) #2


!llvm.module.flags = !{!0}
!llvm.ident = !{!1}

!0 = !{i32 1, !"wchar_size", i32 4}
!1 = !{!"clang version 10.0.0-4ubuntu1 "}
