; ModuleID = 'source-C-CXX/37/121.c'
source_filename = "source-C-CXX/37/121.c"
target datalayout = "e-m:e-p270:32:32-p271:32:32-p272:64:64-i64:64-f80:128-n8:16:32:64-S128"
target triple = "x86_64-pc-linux-gnu"

@.str = private unnamed_addr constant [3 x i8] c"%d\00", align 1
@.str.1 = private unnamed_addr constant [4 x i8] c"%lf\00", align 1
@.str.2 = private unnamed_addr constant [7 x i8] c"%.5lf\0A\00", align 1

; Function Attrs: nofree nounwind sspstrong uwtable
define dso_local void @main() local_unnamed_addr #0 {
  %1 = alloca i32, align 4
  %2 = alloca i32, align 4
  %3 = alloca [100 x double], align 16
  %4 = bitcast i32* %1 to i8*
  call void @llvm.lifetime.start.p0i8(i64 4, i8* nonnull %4) #4
  %5 = call i32 (i8*, ...) @__isoc99_scanf(i8* getelementptr inbounds ([3 x i8], [3 x i8]* @.str, i64 0, i64 0), i32* nonnull %1)
  %6 = load i32, i32* %1, align 4, !tbaa !5
  %7 = bitcast i32* %2 to i8*
  %8 = bitcast [100 x double]* %3 to i8*
  %9 = icmp sgt i32 %6, 0
  br i1 %9, label %10, label %44

10:                                               ; preds = %0, %28
  call void @llvm.lifetime.start.p0i8(i64 4, i8* nonnull %7) #4
  call void @llvm.lifetime.start.p0i8(i64 800, i8* nonnull %8) #4
  %11 = call i32 (i8*, ...) @__isoc99_scanf(i8* getelementptr inbounds ([3 x i8], [3 x i8]* @.str, i64 0, i64 0), i32* nonnull %2)
  %12 = load i32, i32* %2, align 4, !tbaa !5
  %13 = icmp sgt i32 %12, 0
  br i1 %13, label %14, label %28

14:                                               ; preds = %10, %14
  %15 = phi i64 [ %24, %14 ], [ 0, %10 ]
  %16 = phi <2 x double> [ %23, %14 ], [ zeroinitializer, %10 ]
  %17 = getelementptr inbounds [100 x double], [100 x double]* %3, i64 0, i64 %15
  %18 = call i32 (i8*, ...) @__isoc99_scanf(i8* getelementptr inbounds ([4 x i8], [4 x i8]* @.str.1, i64 0, i64 0), double* nonnull %17)
  %19 = load double, double* %17, align 8, !tbaa !9
  %20 = fmul double %19, %19
  %21 = insertelement <2 x double> poison, double %20, i32 0
  %22 = insertelement <2 x double> %21, double %19, i32 1
  %23 = fadd <2 x double> %16, %22
  %24 = add nuw nsw i64 %15, 1
  %25 = load i32, i32* %2, align 4, !tbaa !5
  %26 = sext i32 %25 to i64
  %27 = icmp slt i64 %24, %26
  br i1 %27, label %14, label %28, !llvm.loop !11

28:                                               ; preds = %14, %10
  %29 = phi i32 [ %12, %10 ], [ %25, %14 ]
  %30 = phi <2 x double> [ zeroinitializer, %10 ], [ %23, %14 ]
  %31 = sitofp i32 %29 to double
  %32 = insertelement <2 x double> poison, double %31, i32 0
  %33 = shufflevector <2 x double> %32, <2 x double> poison, <2 x i32> zeroinitializer
  %34 = fdiv <2 x double> %30, %33
  %35 = fmul <2 x double> %34, %34
  %36 = shufflevector <2 x double> %35, <2 x double> poison, <2 x i32> <i32 1, i32 undef>
  %37 = fsub <2 x double> %34, %36
  %38 = extractelement <2 x double> %37, i32 0
  %39 = call double @sqrt(double %38) #4
  %40 = call i32 (i8*, ...) @printf(i8* nonnull dereferenceable(1) getelementptr inbounds ([7 x i8], [7 x i8]* @.str.2, i64 0, i64 0), double %39)
  call void @llvm.lifetime.end.p0i8(i64 800, i8* nonnull %8) #4
  call void @llvm.lifetime.end.p0i8(i64 4, i8* nonnull %7) #4
  %41 = load i32, i32* %1, align 4, !tbaa !5
  %42 = add nsw i32 %41, -1
  store i32 %42, i32* %1, align 4, !tbaa !5
  %43 = icmp sgt i32 %41, 1
  br i1 %43, label %10, label %44, !llvm.loop !13

44:                                               ; preds = %28, %0
  call void @llvm.lifetime.end.p0i8(i64 4, i8* nonnull %4) #4
  ret void
}

; Function Attrs: argmemonly mustprogress nofree nosync nounwind willreturn
declare void @llvm.lifetime.start.p0i8(i64 immarg, i8* nocapture) #1

; Function Attrs: nofree nounwind
declare noundef i32 @__isoc99_scanf(i8* nocapture noundef readonly, ...) local_unnamed_addr #2

; Function Attrs: nofree nounwind
declare noundef i32 @printf(i8* nocapture noundef readonly, ...) local_unnamed_addr #2

; Function Attrs: mustprogress nofree nounwind willreturn
declare double @sqrt(double) local_unnamed_addr #3

; Function Attrs: argmemonly mustprogress nofree nosync nounwind willreturn
declare void @llvm.lifetime.end.p0i8(i64 immarg, i8* nocapture) #1


!llvm.module.flags = !{!0, !1, !2, !3}
!llvm.ident = !{!4}

!0 = !{i32 1, !"wchar_size", i32 4}
!1 = !{i32 7, !"PIC Level", i32 2}
!2 = !{i32 7, !"PIE Level", i32 2}
!3 = !{i32 7, !"uwtable", i32 1}
!4 = !{!"clang version 13.0.0"}
!5 = !{!6, !6, i64 0}
!6 = !{!"int", !7, i64 0}
!7 = !{!"omnipotent char", !8, i64 0}
!8 = !{!"Simple C/C++ TBAA"}
!9 = !{!10, !10, i64 0}
!10 = !{!"double", !7, i64 0}
!11 = distinct !{!11, !12}
!12 = !{!"llvm.loop.mustprogress"}
!13 = distinct !{!13, !12}
